target datalayout = "e-m:e-p270:32:32-p271:32:32-p272:64:64-i64:64-i128:128-f80:128-n8:16:32:64-S128"
target triple = "x86_64-pc-linux-gnu"

@.str.131 = private unnamed_addr constant [9 x i8] c"Spectrum\00", align 1
@hf_vrt_context_spectrum_spectrum_type = internal global i32 0, align 4
@hf_vrt_context_spectrum_window_type = internal global i32 0, align 4
@hf_vrt_context_spectrum_num_transform_points = internal global i32 0, align 4
@hf_vrt_context_spectrum_num_window_points = internal global i32 0, align 4
@hf_vrt_context_spectrum_resolution = internal global i32 0, align 4
@hf_vrt_context_spectrum_span = internal global i32 0, align 4
@hf_vrt_context_spectrum_num_averages = internal global i32 0, align 4
@hf_vrt_context_spectrum_weighting_factor = internal global i32 0, align 4
@hf_vrt_context_spectrum_spectrum_f1_index = internal global i32 0, align 4
@hf_vrt_context_spectrum_spectrum_f2_index = internal global i32 0, align 4
@hf_vrt_context_spectrum_window_time_delta = internal global i32 0, align 4

; Function Attrs: null_pointer_is_valid sspstrong uwtable
define internal i32 @dissect_context_spectrum(ptr noundef %0, ptr noundef %1, i32 noundef %2) #0 {
  %4 = alloca ptr, align 8
  %5 = alloca ptr, align 8
  %6 = alloca i32, align 4
  %7 = alloca ptr, align 8
  store ptr %0, ptr %4, align 8
  store ptr %1, ptr %5, align 8
  store i32 %2, ptr %6, align 4
  call void @llvm.lifetime.start.p0(i64 8, ptr %7) #7
  %8 = load ptr, ptr %4, align 8
  %9 = load ptr, ptr %5, align 8
  %10 = load i32, ptr %6, align 4
  %11 = call ptr @proto_tree_add_subtree(ptr noundef %8, ptr noundef %9, i32 noundef %10, i32 noundef 52, i32 noundef 19, ptr noundef null, ptr noundef @.str.131)
  store ptr %11, ptr %7, align 8
  %12 = load ptr, ptr %7, align 8
  %13 = load i32, ptr @hf_vrt_context_spectrum_spectrum_type, align 4
  %14 = load ptr, ptr %5, align 8
  %15 = load i32, ptr %6, align 4
  %16 = call ptr @proto_tree_add_item(ptr noundef %12, i32 noundef %13, ptr noundef %14, i32 noundef %15, i32 noundef 4, i32 noundef 0)
  %17 = load ptr, ptr %7, align 8
  %18 = load i32, ptr @hf_vrt_context_spectrum_window_type, align 4
  %19 = load ptr, ptr %5, align 8
  %20 = load i32, ptr %6, align 4
  %21 = add i32 %20, 4
  %22 = call ptr @proto_tree_add_item(ptr noundef %17, i32 noundef %18, ptr noundef %19, i32 noundef %21, i32 noundef 4, i32 noundef 0)
  %23 = load ptr, ptr %7, align 8
  %24 = load i32, ptr @hf_vrt_context_spectrum_num_transform_points, align 4
  %25 = load ptr, ptr %5, align 8
  %26 = load i32, ptr %6, align 4
  %27 = add i32 %26, 8
  %28 = call ptr @proto_tree_add_item(ptr noundef %23, i32 noundef %24, ptr noundef %25, i32 noundef %27, i32 noundef 4, i32 noundef 0)
  %29 = load ptr, ptr %7, align 8
  %30 = load i32, ptr @hf_vrt_context_spectrum_num_window_points, align 4
  %31 = load ptr, ptr %5, align 8
  %32 = load i32, ptr %6, align 4
  %33 = add i32 %32, 12
  %34 = call ptr @proto_tree_add_item(ptr noundef %29, i32 noundef %30, ptr noundef %31, i32 noundef %33, i32 noundef 4, i32 noundef 0)
  %35 = load ptr, ptr %7, align 8
  %36 = load i32, ptr @hf_vrt_context_spectrum_resolution, align 4
  %37 = load ptr, ptr %5, align 8
  %38 = load i32, ptr %6, align 4
  %39 = add i32 %38, 16
  %40 = call ptr @proto_tree_add_item(ptr noundef %35, i32 noundef %36, ptr noundef %37, i32 noundef %39, i32 noundef 8, i32 noundef 0)
  %41 = load ptr, ptr %7, align 8
  %42 = load i32, ptr @hf_vrt_context_spectrum_span, align 4
  %43 = load ptr, ptr %5, align 8
  %44 = load i32, ptr %6, align 4
  %45 = add i32 %44, 24
  %46 = call ptr @proto_tree_add_item(ptr noundef %41, i32 noundef %42, ptr noundef %43, i32 noundef %45, i32 noundef 8, i32 noundef 0)
  %47 = load ptr, ptr %7, align 8
  %48 = load i32, ptr @hf_vrt_context_spectrum_num_averages, align 4
  %49 = load ptr, ptr %5, align 8
  %50 = load i32, ptr %6, align 4
  %51 = add i32 %50, 32
  %52 = call ptr @proto_tree_add_item(ptr noundef %47, i32 noundef %48, ptr noundef %49, i32 noundef %51, i32 noundef 4, i32 noundef 0)
  %53 = load ptr, ptr %7, align 8
  %54 = load i32, ptr @hf_vrt_context_spectrum_weighting_factor, align 4
  %55 = load ptr, ptr %5, align 8
  %56 = load i32, ptr %6, align 4
  %57 = add i32 %56, 36
  %58 = call ptr @proto_tree_add_item(ptr noundef %53, i32 noundef %54, ptr noundef %55, i32 noundef %57, i32 noundef 4, i32 noundef 0)
  %59 = load ptr, ptr %7, align 8
  %60 = load i32, ptr @hf_vrt_context_spectrum_spectrum_f1_index, align 4
  %61 = load ptr, ptr %5, align 8
  %62 = load i32, ptr %6, align 4
  %63 = add i32 %62, 40
  %64 = call ptr @proto_tree_add_item(ptr noundef %59, i32 noundef %60, ptr noundef %61, i32 noundef %63, i32 noundef 4, i32 noundef 0)
  %65 = load ptr, ptr %7, align 8
  %66 = load i32, ptr @hf_vrt_context_spectrum_spectrum_f2_index, align 4
  %67 = load ptr, ptr %5, align 8
  %68 = load i32, ptr %6, align 4
  %69 = add i32 %68, 44
  %70 = call ptr @proto_tree_add_item(ptr noundef %65, i32 noundef %66, ptr noundef %67, i32 noundef %69, i32 noundef 4, i32 noundef 0)
  %71 = load ptr, ptr %7, align 8
  %72 = load i32, ptr @hf_vrt_context_spectrum_window_time_delta, align 4
  %73 = load ptr, ptr %5, align 8
  %74 = load i32, ptr %6, align 4
  %75 = add i32 %74, 48
  %76 = call ptr @proto_tree_add_item(ptr noundef %71, i32 noundef %72, ptr noundef %73, i32 noundef %75, i32 noundef 4, i32 noundef 0)
  call void @llvm.lifetime.end.p0(i64 8, ptr %7) #7
  ret i32 0
}