; Function Attrs: null_pointer_is_valid sspstrong uwtable
define internal noundef i32 @dissect_context_spectrum(ptr noundef %0, ptr noundef %1, i32 noundef %2) #0 {
  %4 = tail call ptr @proto_tree_add_subtree(ptr noundef %0, ptr noundef %1, i32 noundef %2, i32 noundef 52, i32 noundef 19, ptr noundef null, ptr noundef nonnull @.str.131)
  %5 = load i32, ptr @hf_vrt_context_spectrum_spectrum_type, align 4
  %6 = tail call ptr @proto_tree_add_item(ptr noundef %4, i32 noundef %5, ptr noundef %1, i32 noundef %2, i32 noundef 4, i32 noundef 0)
  %7 = load i32, ptr @hf_vrt_context_spectrum_window_type, align 4
  %8 = add i32 %2, 4
  %9 = tail call ptr @proto_tree_add_item(ptr noundef %4, i32 noundef %7, ptr noundef %1, i32 noundef %8, i32 noundef 4, i32 noundef 0)
  %10 = load i32, ptr @hf_vrt_context_spectrum_num_transform_points, align 4
  %11 = add i32 %2, 8
  %12 = tail call ptr @proto_tree_add_item(ptr noundef %4, i32 noundef %10, ptr noundef %1, i32 noundef %11, i32 noundef 4, i32 noundef 0)
  %13 = load i32, ptr @hf_vrt_context_spectrum_num_window_points, align 4
  %14 = add i32 %2, 12
  %15 = tail call ptr @proto_tree_add_item(ptr noundef %4, i32 noundef %13, ptr noundef %1, i32 noundef %14, i32 noundef 4, i32 noundef 0)
  %16 = load i32, ptr @hf_vrt_context_spectrum_resolution, align 4
  %17 = add i32 %2, 16
  %18 = tail call ptr @proto_tree_add_item(ptr noundef %4, i32 noundef %16, ptr noundef %1, i32 noundef %17, i32 noundef 8, i32 noundef 0)
  %19 = load i32, ptr @hf_vrt_context_spectrum_span, align 4
  %20 = add i32 %2, 24
  %21 = tail call ptr @proto_tree_add_item(ptr noundef %4, i32 noundef %19, ptr noundef %1, i32 noundef %20, i32 noundef 8, i32 noundef 0)
  %22 = load i32, ptr @hf_vrt_context_spectrum_num_averages, align 4
  %23 = add i32 %2, 32
  %24 = tail call ptr @proto_tree_add_item(ptr noundef %4, i32 noundef %22, ptr noundef %1, i32 noundef %23, i32 noundef 4, i32 noundef 0)
  %25 = load i32, ptr @hf_vrt_context_spectrum_weighting_factor, align 4
  %26 = add i32 %2, 36
  %27 = tail call ptr @proto_tree_add_item(ptr noundef %4, i32 noundef %25, ptr noundef %1, i32 noundef %26, i32 noundef 4, i32 noundef 0)
  %28 = load i32, ptr @hf_vrt_context_spectrum_spectrum_f1_index, align 4
  %29 = add i32 %2, 40
  %30 = tail call ptr @proto_tree_add_item(ptr noundef %4, i32 noundef %28, ptr noundef %1, i32 noundef %29, i32 noundef 4, i32 noundef 0)
  %31 = load i32, ptr @hf_vrt_context_spectrum_spectrum_f2_index, align 4
  %32 = add i32 %2, 44
  %33 = tail call ptr @proto_tree_add_item(ptr noundef %4, i32 noundef %31, ptr noundef %1, i32 noundef %32, i32 noundef 4, i32 noundef 0)
  %34 = load i32, ptr @hf_vrt_context_spectrum_window_time_delta, align 4
  %35 = add i32 %2, 48
  %36 = tail call ptr @proto_tree_add_item(ptr noundef %4, i32 noundef %34, ptr noundef %1, i32 noundef %35, i32 noundef 4, i32 noundef 0)
  ret i32 0
}